target datalayout = "e-m:e-p270:32:32-p271:32:32-p272:64:64-i64:64-i128:128-f80:128-n8:16:32:64-S128"
target triple = "x86_64-pc-linux-gnu"

%struct.ma_allocation_callbacks = type { ptr, ptr, ptr, ptr }
%struct.ma_pcm_rb = type { %struct.ma_data_source_base, %struct.ma_rb, i32, i32, i32 }
%struct.ma_data_source_base = type { ptr, i64, i64, i64, i64, ptr, ptr, ptr, i32 }
%struct.ma_rb = type { ptr, i32, i32, i32, i32, i32, i8, i8, %struct.ma_allocation_callbacks }

@__const.ma_get_bytes_per_sample.sizes = private unnamed_addr constant [6 x i32] [i32 0, i32 1, i32 2, i32 3, i32 4, i32 4], align 16

; Function Attrs: alwaysinline nounwind uwtable
define internal i32 @ma_rb__extract_offset_loop_flag(i32 noundef %0) #7 {
  %2 = alloca i32, align 4
  store i32 %0, ptr %2, align 4, !tbaa !8
  %3 = load i32, ptr %2, align 4, !tbaa !8
  %4 = and i32 %3, -2147483648
  ret i32 %4
}

; Function Attrs: alwaysinline nounwind uwtable
define internal i32 @ma_rb__extract_offset_in_bytes(i32 noundef %0) #7 {
  %2 = alloca i32, align 4
  store i32 %0, ptr %2, align 4, !tbaa !8
  %3 = load i32, ptr %2, align 4, !tbaa !8
  %4 = and i32 %3, 2147483647
  ret i32 %4
}

; Function Attrs: nounwind uwtable
define i32 @ma_get_bytes_per_sample(i32 noundef %0) #0 {
  %2 = alloca i32, align 4
  %3 = alloca [6 x i32], align 16
  store i32 %0, ptr %2, align 4, !tbaa !8
  call void @llvm.lifetime.start.p0(i64 24, ptr %3) #16
  call void @llvm.memcpy.p0.p0.i64(ptr align 16 %3, ptr align 16 @__const.ma_get_bytes_per_sample.sizes, i64 24, i1 false)
  %4 = load i32, ptr %2, align 4, !tbaa !8
  %5 = zext i32 %4 to i64
  %6 = getelementptr inbounds nuw [6 x i32], ptr %3, i64 0, i64 %5
  %7 = load i32, ptr %6, align 4, !tbaa !8
  call void @llvm.lifetime.end.p0(i64 24, ptr %3) #16
  ret i32 %7
}

; Function Attrs: alwaysinline nounwind uwtable
define internal ptr @ma_rb__get_read_ptr(ptr noundef %0) #7 {
  %2 = alloca ptr, align 8
  %3 = alloca i32, align 4
  store ptr %0, ptr %2, align 8, !tbaa !25
  %4 = load ptr, ptr %2, align 8, !tbaa !25
  %5 = getelementptr inbounds nuw %struct.ma_rb, ptr %4, i32 0, i32 0
  %6 = load ptr, ptr %5, align 8, !tbaa !847
  %7 = load ptr, ptr %2, align 8, !tbaa !25
  %8 = getelementptr inbounds nuw %struct.ma_rb, ptr %7, i32 0, i32 4
  %9 = load atomic i32, ptr %8 seq_cst, align 4
  store i32 %9, ptr %3, align 4
  %10 = load i32, ptr %3, align 4, !tbaa !8
  %11 = call i32 @ma_rb__extract_offset_in_bytes(i32 noundef %10)
  %12 = zext i32 %11 to i64
  %13 = getelementptr inbounds nuw i8, ptr %6, i64 %12
  ret ptr %13
}

; Function Attrs: alwaysinline nounwind uwtable
define internal void @ma_rb__deconstruct_offset(i32 noundef %0, ptr noundef %1, ptr noundef %2) #7 {
  %4 = alloca i32, align 4
  %5 = alloca ptr, align 8
  %6 = alloca ptr, align 8
  store i32 %0, ptr %4, align 4, !tbaa !8
  store ptr %1, ptr %5, align 8, !tbaa !3
  store ptr %2, ptr %6, align 8, !tbaa !3
  %7 = load i32, ptr %4, align 4, !tbaa !8
  %8 = call i32 @ma_rb__extract_offset_in_bytes(i32 noundef %7)
  %9 = load ptr, ptr %5, align 8, !tbaa !3
  store i32 %8, ptr %9, align 4, !tbaa !8
  %10 = load i32, ptr %4, align 4, !tbaa !8
  %11 = call i32 @ma_rb__extract_offset_loop_flag(i32 noundef %10)
  %12 = load ptr, ptr %6, align 8, !tbaa !3
  store i32 %11, ptr %12, align 4, !tbaa !8
  ret void
}

; Function Attrs: alwaysinline nounwind uwtable
define internal i32 @ma_get_bytes_per_frame(i32 noundef %0, i32 noundef %1) #7 {
  %3 = alloca i32, align 4
  %4 = alloca i32, align 4
  store i32 %0, ptr %3, align 4, !tbaa !8
  store i32 %1, ptr %4, align 4, !tbaa !8
  %5 = load i32, ptr %3, align 4, !tbaa !8
  %6 = call i32 @ma_get_bytes_per_sample(i32 noundef %5)
  %7 = load i32, ptr %4, align 4, !tbaa !8
  %8 = mul i32 %6, %7
  ret i32 %8
}

; Function Attrs: nounwind uwtable
define i32 @ma_rb_acquire_read(ptr noundef %0, ptr noundef %1, ptr noundef %2) #0 {
  %4 = alloca i32, align 4
  %5 = alloca ptr, align 8
  %6 = alloca ptr, align 8
  %7 = alloca ptr, align 8
  %8 = alloca i32, align 4
  %9 = alloca i32, align 4
  %10 = alloca i32, align 4
  %11 = alloca i32, align 4
  %12 = alloca i32, align 4
  %13 = alloca i32, align 4
  %14 = alloca i64, align 8
  %15 = alloca i64, align 8
  %16 = alloca i32, align 4
  %17 = alloca i32, align 4
  %18 = alloca i32, align 4
  store ptr %0, ptr %5, align 8, !tbaa !25
  store ptr %1, ptr %6, align 8, !tbaa !69
  store ptr %2, ptr %7, align 8, !tbaa !25
  call void @llvm.lifetime.start.p0(i64 4, ptr %8) #16
  call void @llvm.lifetime.start.p0(i64 4, ptr %9) #16
  call void @llvm.lifetime.start.p0(i64 4, ptr %10) #16
  call void @llvm.lifetime.start.p0(i64 4, ptr %11) #16
  call void @llvm.lifetime.start.p0(i64 4, ptr %12) #16
  call void @llvm.lifetime.start.p0(i64 4, ptr %13) #16
  call void @llvm.lifetime.start.p0(i64 8, ptr %14) #16
  call void @llvm.lifetime.start.p0(i64 8, ptr %15) #16
  %19 = load ptr, ptr %5, align 8, !tbaa !25
  %20 = icmp eq ptr %19, null
  br i1 %20, label %27, label %21

21:                                               ; preds = %3
  %22 = load ptr, ptr %6, align 8, !tbaa !69
  %23 = icmp eq ptr %22, null
  br i1 %23, label %27, label %24

24:                                               ; preds = %21
  %25 = load ptr, ptr %7, align 8, !tbaa !25
  %26 = icmp eq ptr %25, null
  br i1 %26, label %27, label %28

27:                                               ; preds = %24, %21, %3
  store i32 -2, ptr %4, align 4
  store i32 1, ptr %16, align 4
  br label %68

28:                                               ; preds = %24
  %29 = load ptr, ptr %5, align 8, !tbaa !25
  %30 = getelementptr inbounds nuw %struct.ma_rb, ptr %29, i32 0, i32 5
  %31 = load atomic i32, ptr %30 seq_cst, align 8
  store i32 %31, ptr %17, align 4
  %32 = load i32, ptr %17, align 4, !tbaa !8
  store i32 %32, ptr %8, align 4, !tbaa !8
  %33 = load i32, ptr %8, align 4, !tbaa !8
  call void @ma_rb__deconstruct_offset(i32 noundef %33, ptr noundef %9, ptr noundef %10)
  %34 = load ptr, ptr %5, align 8, !tbaa !25
  %35 = getelementptr inbounds nuw %struct.ma_rb, ptr %34, i32 0, i32 4
  %36 = load atomic i32, ptr %35 seq_cst, align 4
  store i32 %36, ptr %18, align 4
  %37 = load i32, ptr %18, align 4, !tbaa !8
  store i32 %37, ptr %11, align 4, !tbaa !8
  %38 = load i32, ptr %11, align 4, !tbaa !8
  call void @ma_rb__deconstruct_offset(i32 noundef %38, ptr noundef %12, ptr noundef %13)
  %39 = load i32, ptr %13, align 4, !tbaa !8
  %40 = load i32, ptr %10, align 4, !tbaa !8
  %41 = icmp eq i32 %39, %40
  br i1 %41, label %42, label %47

42:                                               ; preds = %28
  %43 = load i32, ptr %9, align 4, !tbaa !8
  %44 = load i32, ptr %12, align 4, !tbaa !8
  %45 = sub i32 %43, %44
  %46 = zext i32 %45 to i64
  store i64 %46, ptr %14, align 8, !tbaa !12
  br label %54

47:                                               ; preds = %28
  %48 = load ptr, ptr %5, align 8, !tbaa !25
  %49 = getelementptr inbounds nuw %struct.ma_rb, ptr %48, i32 0, i32 1
  %50 = load i32, ptr %49, align 8, !tbaa !844
  %51 = load i32, ptr %12, align 4, !tbaa !8
  %52 = sub i32 %50, %51
  %53 = zext i32 %52 to i64
  store i64 %53, ptr %14, align 8, !tbaa !12
  br label %54

54:                                               ; preds = %47, %42
  %55 = load ptr, ptr %6, align 8, !tbaa !69
  %56 = load i64, ptr %55, align 8, !tbaa !12
  store i64 %56, ptr %15, align 8, !tbaa !12
  %57 = load i64, ptr %15, align 8, !tbaa !12
  %58 = load i64, ptr %14, align 8, !tbaa !12
  %59 = icmp ugt i64 %57, %58
  br i1 %59, label %60, label %62

60:                                               ; preds = %54
  %61 = load i64, ptr %14, align 8, !tbaa !12
  store i64 %61, ptr %15, align 8, !tbaa !12
  br label %62

62:                                               ; preds = %60, %54
  %63 = load i64, ptr %15, align 8, !tbaa !12
  %64 = load ptr, ptr %6, align 8, !tbaa !69
  store i64 %63, ptr %64, align 8, !tbaa !12
  %65 = load ptr, ptr %5, align 8, !tbaa !25
  %66 = call ptr @ma_rb__get_read_ptr(ptr noundef %65)
  %67 = load ptr, ptr %7, align 8, !tbaa !25
  store ptr %66, ptr %67, align 8, !tbaa !25
  store i32 0, ptr %4, align 4
  store i32 1, ptr %16, align 4
  br label %68

68:                                               ; preds = %62, %27
  call void @llvm.lifetime.end.p0(i64 8, ptr %15) #16
  call void @llvm.lifetime.end.p0(i64 8, ptr %14) #16
  call void @llvm.lifetime.end.p0(i64 4, ptr %13) #16
  call void @llvm.lifetime.end.p0(i64 4, ptr %12) #16
  call void @llvm.lifetime.end.p0(i64 4, ptr %11) #16
  call void @llvm.lifetime.end.p0(i64 4, ptr %10) #16
  call void @llvm.lifetime.end.p0(i64 4, ptr %9) #16
  call void @llvm.lifetime.end.p0(i64 4, ptr %8) #16
  %69 = load i32, ptr %4, align 4
  ret i32 %69
}

; Function Attrs: alwaysinline nounwind uwtable
define internal i32 @ma_pcm_rb_get_bpf(ptr noundef %0) #7 {
  %2 = alloca ptr, align 8
  store ptr %0, ptr %2, align 8, !tbaa !25
  %3 = load ptr, ptr %2, align 8, !tbaa !25
  %4 = getelementptr inbounds nuw %struct.ma_pcm_rb, ptr %3, i32 0, i32 2
  %5 = load i32, ptr %4, align 8, !tbaa !850
  %6 = load ptr, ptr %2, align 8, !tbaa !25
  %7 = getelementptr inbounds nuw %struct.ma_pcm_rb, ptr %6, i32 0, i32 3
  %8 = load i32, ptr %7, align 4, !tbaa !851
  %9 = call i32 @ma_get_bytes_per_frame(i32 noundef %5, i32 noundef %8)
  ret i32 %9
}

; Function Attrs: nounwind uwtable
define i32 @ma_pcm_rb_acquire_read(ptr noundef %0, ptr noundef %1, ptr noundef %2) #0 {
  %4 = alloca i32, align 4
  %5 = alloca ptr, align 8
  %6 = alloca ptr, align 8
  %7 = alloca ptr, align 8
  %8 = alloca i64, align 8
  %9 = alloca i32, align 4
  %10 = alloca i32, align 4
  store ptr %0, ptr %5, align 8, !tbaa !25
  store ptr %1, ptr %6, align 8, !tbaa !3
  store ptr %2, ptr %7, align 8, !tbaa !25
  call void @llvm.lifetime.start.p0(i64 8, ptr %8) #16
  call void @llvm.lifetime.start.p0(i64 4, ptr %9) #16
  %11 = load ptr, ptr %5, align 8, !tbaa !25
  %12 = icmp eq ptr %11, null
  br i1 %12, label %16, label %13

13:                                               ; preds = %3
  %14 = load ptr, ptr %6, align 8, !tbaa !3
  %15 = icmp eq ptr %14, null
  br i1 %15, label %16, label %17

16:                                               ; preds = %13, %3
  store i32 -2, ptr %4, align 4
  store i32 1, ptr %10, align 4
  br label %40

17:                                               ; preds = %13
  %18 = load ptr, ptr %6, align 8, !tbaa !3
  %19 = load i32, ptr %18, align 4, !tbaa !8
  %20 = load ptr, ptr %5, align 8, !tbaa !25
  %21 = call i32 @ma_pcm_rb_get_bpf(ptr noundef %20)
  %22 = mul i32 %19, %21
  %23 = zext i32 %22 to i64
  store i64 %23, ptr %8, align 8, !tbaa !12
  %24 = load ptr, ptr %5, align 8, !tbaa !25
  %25 = getelementptr inbounds nuw %struct.ma_pcm_rb, ptr %24, i32 0, i32 1
  %26 = load ptr, ptr %7, align 8, !tbaa !25
  %27 = call i32 @ma_rb_acquire_read(ptr noundef %25, ptr noundef %8, ptr noundef %26)
  store i32 %27, ptr %9, align 4, !tbaa !8
  %28 = load i32, ptr %9, align 4, !tbaa !8
  %29 = icmp ne i32 %28, 0
  br i1 %29, label %30, label %32

30:                                               ; preds = %17
  %31 = load i32, ptr %9, align 4, !tbaa !8
  store i32 %31, ptr %4, align 4
  store i32 1, ptr %10, align 4
  br label %40

32:                                               ; preds = %17
  %33 = load i64, ptr %8, align 8, !tbaa !12
  %34 = load ptr, ptr %5, align 8, !tbaa !25
  %35 = call i32 @ma_pcm_rb_get_bpf(ptr noundef %34)
  %36 = zext i32 %35 to i64
  %37 = udiv i64 %33, %36
  %38 = trunc i64 %37 to i32
  %39 = load ptr, ptr %6, align 8, !tbaa !3
  store i32 %38, ptr %39, align 4, !tbaa !8
  store i32 0, ptr %4, align 4
  store i32 1, ptr %10, align 4
  br label %40

40:                                               ; preds = %32, %30, %16
  call void @llvm.lifetime.end.p0(i64 4, ptr %9) #16
  call void @llvm.lifetime.end.p0(i64 8, ptr %8) #16
  %41 = load i32, ptr %4, align 4
  ret i32 %41
}