; Function Attrs: mustprogress nofree norecurse nounwind willreturn memory(argmem: readwrite) uwtable
define range(i32 -2, 1) i32 @ma_pcm_rb_acquire_read(ptr noundef readonly captures(address_is_null) %0, ptr noundef captures(address_is_null) %1, ptr noundef writeonly captures(address_is_null) %2) local_unnamed_addr #26 {
  %4 = icmp eq ptr %0, null
  %5 = icmp eq ptr %1, null
  %or.cond = or i1 %4, %5
  br i1 %or.cond, label %ma_rb_acquire_read.exit, label %6

6:                                                ; preds = %3
  %7 = load i32, ptr %1, align 4, !tbaa !3
  %8 = getelementptr inbounds nuw i8, ptr %0, i64 136
  %9 = load i32, ptr %8, align 8, !tbaa !348
  %10 = getelementptr inbounds nuw i8, ptr %0, i64 140
  %11 = load i32, ptr %10, align 4, !tbaa !349
  %12 = zext i32 %9 to i64
  %13 = getelementptr inbounds nuw [6 x i32], ptr @__const.ma_get_bytes_per_sample.sizes, i64 0, i64 %12
  %14 = load i32, ptr %13, align 4, !tbaa !3
  %15 = mul i32 %11, %7
  %16 = mul i32 %15, %14
  %17 = getelementptr inbounds nuw i8, ptr %0, i64 72
  %18 = icmp eq ptr %2, null
  br i1 %18, label %ma_rb_acquire_read.exit, label %19

19:                                               ; preds = %6
  %20 = getelementptr inbounds nuw i8, ptr %0, i64 96
  %21 = load atomic i32, ptr %20 seq_cst, align 8
  %22 = getelementptr inbounds nuw i8, ptr %0, i64 92
  %23 = load atomic i32, ptr %22 seq_cst, align 4
  %24 = and i32 %23, 2147483647
  %25 = xor i32 %23, %21
  %26 = icmp sgt i32 %25, -1
  br i1 %26, label %27, label %29

27:                                               ; preds = %19
  %28 = and i32 %21, 2147483647
  br label %32

29:                                               ; preds = %19
  %30 = getelementptr inbounds nuw i8, ptr %0, i64 80
  %31 = load i32, ptr %30, align 8, !tbaa !345
  br label %32

32:                                               ; preds = %27, %29
  %.pn.i = phi i32 [ %28, %27 ], [ %31, %29 ]
  %.021.in.i = sub i32 %.pn.i, %24
  %33 = tail call i32 @llvm.umin.i32(i32 %16, i32 %.021.in.i)
  %34 = load ptr, ptr %17, align 8, !tbaa !327
  %35 = load atomic i32, ptr %22 seq_cst, align 4
  %36 = and i32 %35, 2147483647
  %37 = zext nneg i32 %36 to i64
  %38 = getelementptr inbounds nuw i8, ptr %34, i64 %37
  store ptr %38, ptr %2, align 8, !tbaa !27
  %39 = load i32, ptr %8, align 8, !tbaa !348
  %40 = load i32, ptr %10, align 4, !tbaa !349
  %41 = zext i32 %39 to i64
  %42 = getelementptr inbounds nuw [6 x i32], ptr @__const.ma_get_bytes_per_sample.sizes, i64 0, i64 %41
  %43 = load i32, ptr %42, align 4, !tbaa !3
  %44 = mul i32 %43, %40
  %45 = udiv i32 %33, %44
  store i32 %45, ptr %1, align 4, !tbaa !3
  br label %ma_rb_acquire_read.exit

ma_rb_acquire_read.exit:                          ; preds = %6, %3, %32
  %.0 = phi i32 [ 0, %32 ], [ -2, %3 ], [ -2, %6 ]
  ret i32 %.0
}